; Function Attrs: mustprogress nofree norecurse nosync nounwind willreturn memory(argmem: write) uwtable
define void @_ZN8QuantLib18LevenbergMarquardtC2Edddb(ptr nocapture noundef nonnull writeonly align 8 dereferenceable(89) %this, double noundef %epsfcn, double noundef %xtol, double noundef %gtol, i1 noundef zeroext %useCostFunctionsJacobian) unnamed_addr #0 align 2 personality ptr @__gxx_personality_v0 {
invoke.cont:
  store ptr getelementptr inbounds inrange(-16, 32) (i8, ptr @_ZTVN8QuantLib18LevenbergMarquardtE, i64 16), ptr %this, align 8, !tbaa !3
  %initCostValues_ = getelementptr inbounds nuw i8, ptr %this, i64 16
  %storedv = zext i1 %useCostFunctionsJacobian to i8
  %epsfcn_ = getelementptr inbounds nuw i8, ptr %this, i64 64
  tail call void @llvm.memset.p0.i64(ptr noundef nonnull align 8 dereferenceable(44) %initCostValues_, i8 0, i64 44, i1 false)
  store double %epsfcn, ptr %epsfcn_, align 8, !tbaa !6
  %xtol_ = getelementptr inbounds nuw i8, ptr %this, i64 72
  store double %xtol, ptr %xtol_, align 8, !tbaa !23
  %gtol_ = getelementptr inbounds nuw i8, ptr %this, i64 80
  store double %gtol, ptr %gtol_, align 8, !tbaa !24
  %useCostFunctionsJacobian_ = getelementptr inbounds nuw i8, ptr %this, i64 88
  store i8 %storedv, ptr %useCostFunctionsJacobian_, align 8, !tbaa !25
  ret void
}